; Function Attrs: mustprogress uwtable
define void @_ZN3nix20PathSubstitutionGoal7cleanupEv(ptr noundef nonnull align 8 dereferenceable(1080) %0) unnamed_addr #4 align 2 personality ptr @__gxx_personality_v0 {
  %2 = getelementptr inbounds i8, ptr %0, i64 864
  %.sroa.0.0.copyload.i = load i64, ptr %2, align 8
  %.not = icmp eq i64 %.sroa.0.0.copyload.i, 0
  br i1 %.not, label %13, label %3

3:                                                ; preds = %1
  invoke void @_ZNSt6thread4joinEv(ptr noundef nonnull align 8 dereferenceable(8) %2)
          to label %4 unwind label %7

4:                                                ; preds = %3
  %5 = getelementptr inbounds i8, ptr %0, i64 24
  %6 = load ptr, ptr %5, align 8
  invoke void @_ZN3nix6Worker15childTerminatedEPNS_4GoalEb(ptr noundef nonnull align 8 dereferenceable(649) %6, ptr noundef nonnull %0, i1 noundef zeroext true)
          to label %13 unwind label %7

7:                                                ; preds = %13, %4, %3
  %8 = landingpad { ptr, i32 }
          catch ptr null
  %9 = extractvalue { ptr, i32 } %8, 0
  %10 = tail call ptr @__cxa_begin_catch(ptr %9) #29
  invoke void @_ZN3nix15ignoreExceptionENS_9VerbosityE(i32 noundef 0)
          to label %11 unwind label %15

11:                                               ; preds = %7
  tail call void @__cxa_end_catch()
  br label %12

12:                                               ; preds = %13, %11
  ret void

13:                                               ; preds = %4, %1
  %14 = getelementptr inbounds i8, ptr %0, i64 856
  invoke void @_ZN3nix4Pipe5closeEv(ptr noundef nonnull align 4 dereferenceable(8) %14)
          to label %12 unwind label %7

15:                                               ; preds = %7
  %16 = landingpad { ptr, i32 }
          cleanup
  invoke void @__cxa_end_catch()
          to label %17 unwind label %18

17:                                               ; preds = %15
  resume { ptr, i32 } %16

18:                                               ; preds = %15
  %19 = landingpad { ptr, i32 }
          catch ptr null
  %20 = extractvalue { ptr, i32 } %19, 0
  tail call void @__clang_call_terminate(ptr %20) #32
  unreachable
}